; Function Attrs: mustprogress uwtable
define void @_ZN5arrow23UnregisterExtensionTypeERKNSt7__cxx1112basic_stringIcSt11char_traitsIcESaIcEEE(ptr dead_on_unwind noalias writable sret(%"class.arrow::Status") align 8 %0, ptr noundef nonnull align 8 dereferenceable(32) %1) local_unnamed_addr #1 personality ptr @__gxx_personality_v0 {
  %3 = alloca %class.anon, align 8
  %4 = alloca %"class.std::shared_ptr.51", align 8
  call void @llvm.lifetime.start.p0(i64 16, ptr nonnull %4) #23
  tail call void @llvm.experimental.noalias.scope.decl(metadata !209)
  call void @llvm.lifetime.start.p0(i64 8, ptr nonnull %3) #23, !noalias !209
  store ptr @_ZN5arrow8internalL20CreateGlobalRegistryEv, ptr %3, align 8, !tbaa !155, !noalias !209
  %5 = tail call align 8 ptr @llvm.threadlocal.address.p0(ptr align 8 @_ZSt15__once_callable)
  store ptr %3, ptr %5, align 8, !tbaa !155, !noalias !209
  %6 = call align 8 ptr @llvm.threadlocal.address.p0(ptr align 8 @_ZSt11__once_call)
  store ptr @_ZZNSt9once_flag18_Prepare_executionC1IZSt9call_onceIRFvvEJEEvRS_OT_DpOT0_EUlvE_EERS6_ENUlvE_8__invokeEv, ptr %6, align 8, !tbaa !155, !noalias !209
  %7 = invoke noundef i32 @pthread_once(ptr noundef nonnull @_ZN5arrowL20registry_initializedE, ptr noundef nonnull @__once_proxy)
          to label %_ZL14__gthread_oncePiPFvvE.exit.i.i unwind label %10, !noalias !209

_ZL14__gthread_oncePiPFvvE.exit.i.i:              ; preds = %2
  %.not.i.i = icmp eq i32 %7, 0
  br i1 %.not.i.i, label %_ZSt9call_onceIRFvvEJEEvRSt9once_flagOT_DpOT0_.exit.i, label %8

8:                                                ; preds = %_ZL14__gthread_oncePiPFvvE.exit.i.i
  invoke void @_ZSt20__throw_system_errori(i32 noundef %7) #26
          to label %9 unwind label %10, !noalias !209

9:                                                ; preds = %8
  unreachable

common.resume:                                    ; preds = %50, %10
  %common.resume.op = phi { ptr, i32 } [ %11, %10 ], [ %51, %50 ]
  resume { ptr, i32 } %common.resume.op

10:                                               ; preds = %8, %2
  %11 = landingpad { ptr, i32 }
          cleanup
  store ptr null, ptr %5, align 8, !tbaa !155, !noalias !209
  store ptr null, ptr %6, align 8, !tbaa !155, !noalias !209
  call void @llvm.lifetime.end.p0(i64 8, ptr nonnull %3) #23, !noalias !209
  br label %common.resume

_ZSt9call_onceIRFvvEJEEvRSt9once_flagOT_DpOT0_.exit.i: ; preds = %_ZL14__gthread_oncePiPFvvE.exit.i.i
  store ptr null, ptr %5, align 8, !tbaa !155, !noalias !209
  store ptr null, ptr %6, align 8, !tbaa !155, !noalias !209
  call void @llvm.lifetime.end.p0(i64 8, ptr nonnull %3) #23, !noalias !209
  %12 = load ptr, ptr @_ZN5arrowL10g_registryE, align 8, !tbaa !156, !noalias !209
  store ptr %12, ptr %4, align 8, !tbaa !156, !alias.scope !209
  %13 = getelementptr inbounds nuw i8, ptr %4, i64 8
  %14 = load ptr, ptr getelementptr inbounds nuw (i8, ptr @_ZN5arrowL10g_registryE, i64 8), align 8, !tbaa !77, !noalias !209
  store ptr %14, ptr %13, align 8, !tbaa !77, !alias.scope !209
  %.not.i.i.i.i = icmp eq ptr %14, null
  br i1 %.not.i.i.i.i, label %_ZN5arrow21ExtensionTypeRegistry17GetGlobalRegistryEv.exit, label %15

15:                                               ; preds = %_ZSt9call_onceIRFvvEJEEvRSt9once_flagOT_DpOT0_.exit.i
  %16 = getelementptr inbounds nuw i8, ptr %14, i64 8
  %17 = load i8, ptr @__libc_single_threaded, align 1, !tbaa !45, !noalias !209
  %.not.i.i.i.i.i = icmp eq i8 %17, 0
  br i1 %.not.i.i.i.i.i, label %21, label %18

18:                                               ; preds = %15
  %19 = load i32, ptr %16, align 4, !tbaa !79, !noalias !209
  %20 = add nsw i32 %19, 1
  store i32 %20, ptr %16, align 4, !tbaa !79, !noalias !209
  br label %_ZN5arrow21ExtensionTypeRegistry17GetGlobalRegistryEv.exit

21:                                               ; preds = %15
  %22 = atomicrmw volatile add ptr %16, i32 1 acq_rel, align 4, !noalias !209
  %.pre = load ptr, ptr %4, align 8, !tbaa !156
  br label %_ZN5arrow21ExtensionTypeRegistry17GetGlobalRegistryEv.exit

_ZN5arrow21ExtensionTypeRegistry17GetGlobalRegistryEv.exit: ; preds = %_ZSt9call_onceIRFvvEJEEvRSt9once_flagOT_DpOT0_.exit.i, %18, %21
  %23 = phi ptr [ %12, %_ZSt9call_onceIRFvvEJEEvRSt9once_flagOT_DpOT0_.exit.i ], [ %12, %18 ], [ %.pre, %21 ]
  %24 = load ptr, ptr %23, align 8, !tbaa !38
  %25 = getelementptr inbounds nuw i8, ptr %24, i64 24
  %26 = load ptr, ptr %25, align 8
  invoke void %26(ptr dead_on_unwind writable sret(%"class.arrow::Status") align 8 %0, ptr noundef nonnull align 8 dereferenceable(8) %23, ptr noundef nonnull align 8 dereferenceable(32) %1)
          to label %27 unwind label %50

27:                                               ; preds = %_ZN5arrow21ExtensionTypeRegistry17GetGlobalRegistryEv.exit
  %28 = load ptr, ptr %13, align 8, !tbaa !77
  %.not.i.i2 = icmp eq ptr %28, null
  br i1 %.not.i.i2, label %_ZNSt12__shared_ptrIN5arrow21ExtensionTypeRegistryELN9__gnu_cxx12_Lock_policyE2EED2Ev.exit, label %29

29:                                               ; preds = %27
  %30 = getelementptr inbounds nuw i8, ptr %28, i64 8
  %31 = load atomic i64, ptr %30 acquire, align 8
  %32 = icmp eq i64 %31, 4294967297
  %33 = trunc i64 %31 to i32
  br i1 %32, label %34, label %42

34:                                               ; preds = %29
  store i32 0, ptr %30, align 8, !tbaa !74
  %35 = getelementptr inbounds nuw i8, ptr %28, i64 12
  store i32 0, ptr %35, align 4, !tbaa !76
  %36 = load ptr, ptr %28, align 8, !tbaa !38
  %37 = getelementptr inbounds nuw i8, ptr %36, i64 16
  %38 = load ptr, ptr %37, align 8
  call void %38(ptr noundef nonnull align 8 dereferenceable(16) %28) #23
  %39 = load ptr, ptr %28, align 8, !tbaa !38
  %40 = getelementptr inbounds nuw i8, ptr %39, i64 24
  %41 = load ptr, ptr %40, align 8
  call void %41(ptr noundef nonnull align 8 dereferenceable(16) %28) #23
  br label %_ZNSt12__shared_ptrIN5arrow21ExtensionTypeRegistryELN9__gnu_cxx12_Lock_policyE2EED2Ev.exit

42:                                               ; preds = %29
  %43 = load i8, ptr @__libc_single_threaded, align 1, !tbaa !45
  %.not.i.i.i = icmp eq i8 %43, 0
  br i1 %.not.i.i.i, label %46, label %44

44:                                               ; preds = %42
  %45 = add nsw i32 %33, -1
  store i32 %45, ptr %30, align 4, !tbaa !79
  br label %_ZN9__gnu_cxx27__exchange_and_add_dispatchEPii.exit.i.i.i

46:                                               ; preds = %42
  %47 = atomicrmw volatile add ptr %30, i32 -1 acq_rel, align 4
  br label %_ZN9__gnu_cxx27__exchange_and_add_dispatchEPii.exit.i.i.i

_ZN9__gnu_cxx27__exchange_and_add_dispatchEPii.exit.i.i.i: ; preds = %46, %44
  %.0.i.i.i.i = phi i32 [ %33, %44 ], [ %47, %46 ]
  %48 = icmp eq i32 %.0.i.i.i.i, 1
  br i1 %48, label %49, label %_ZNSt12__shared_ptrIN5arrow21ExtensionTypeRegistryELN9__gnu_cxx12_Lock_policyE2EED2Ev.exit, !prof !80

49:                                               ; preds = %_ZN9__gnu_cxx27__exchange_and_add_dispatchEPii.exit.i.i.i
  call void @_ZNSt16_Sp_counted_baseILN9__gnu_cxx12_Lock_policyE2EE24_M_release_last_use_coldEv(ptr noundef nonnull align 8 dereferenceable(16) %28) #23
  br label %_ZNSt12__shared_ptrIN5arrow21ExtensionTypeRegistryELN9__gnu_cxx12_Lock_policyE2EED2Ev.exit

_ZNSt12__shared_ptrIN5arrow21ExtensionTypeRegistryELN9__gnu_cxx12_Lock_policyE2EED2Ev.exit: ; preds = %27, %34, %_ZN9__gnu_cxx27__exchange_and_add_dispatchEPii.exit.i.i.i, %49
  call void @llvm.lifetime.end.p0(i64 16, ptr nonnull %4) #23
  ret void

50:                                               ; preds = %_ZN5arrow21ExtensionTypeRegistry17GetGlobalRegistryEv.exit
  %51 = landingpad { ptr, i32 }
          cleanup
  call void @_ZNSt12__shared_ptrIN5arrow21ExtensionTypeRegistryELN9__gnu_cxx12_Lock_policyE2EED2Ev(ptr noundef nonnull align 8 dereferenceable(16) %4) #23
  call void @llvm.lifetime.end.p0(i64 16, ptr nonnull %4) #23
  br label %common.resume
}